
test_arm:     file format elf32-littlearm


Disassembly of section .init:

00010478 <_init>:
   10478:	e92d4008 	push	{r3, lr}
   1047c:	eb000032 	bl	1054c <call_weak_fn>
   10480:	e8bd8008 	pop	{r3, pc}

Disassembly of section .plt:

00010484 <.plt>:
   10484:	e52de004 	push	{lr}		; (str lr, [sp, #-4]!)
   10488:	e59fe004 	ldr	lr, [pc, #4]	; 10494 <.plt+0x10>
   1048c:	e08fe00e 	add	lr, pc, lr
   10490:	e5bef008 	ldr	pc, [lr, #8]!
   10494:	00010b6c 	.word	0x00010b6c

00010498 <printf@plt>:
   10498:	e28fc600 	add	ip, pc, #0, 12
   1049c:	e28cca10 	add	ip, ip, #16, 20	; 0x10000
   104a0:	e5bcfb6c 	ldr	pc, [ip, #2924]!	; 0xb6c

000104a4 <free@plt>:
   104a4:	e28fc600 	add	ip, pc, #0, 12
   104a8:	e28cca10 	add	ip, ip, #16, 20	; 0x10000
   104ac:	e5bcfb64 	ldr	pc, [ip, #2916]!	; 0xb64

000104b0 <puts@plt>:
   104b0:	e28fc600 	add	ip, pc, #0, 12
   104b4:	e28cca10 	add	ip, ip, #16, 20	; 0x10000
   104b8:	e5bcfb5c 	ldr	pc, [ip, #2908]!	; 0xb5c

000104bc <malloc@plt>:
   104bc:	e28fc600 	add	ip, pc, #0, 12
   104c0:	e28cca10 	add	ip, ip, #16, 20	; 0x10000
   104c4:	e5bcfb54 	ldr	pc, [ip, #2900]!	; 0xb54

000104c8 <__libc_start_main@plt>:
   104c8:	e28fc600 	add	ip, pc, #0, 12
   104cc:	e28cca10 	add	ip, ip, #16, 20	; 0x10000
   104d0:	e5bcfb4c 	ldr	pc, [ip, #2892]!	; 0xb4c

000104d4 <__gmon_start__@plt>:
   104d4:	e28fc600 	add	ip, pc, #0, 12
   104d8:	e28cca10 	add	ip, ip, #16, 20	; 0x10000
   104dc:	e5bcfb44 	ldr	pc, [ip, #2884]!	; 0xb44

000104e0 <exit@plt>:
   104e0:	e28fc600 	add	ip, pc, #0, 12
   104e4:	e28cca10 	add	ip, ip, #16, 20	; 0x10000
   104e8:	e5bcfb3c 	ldr	pc, [ip, #2876]!	; 0xb3c

000104ec <srand@plt>:
   104ec:	e28fc600 	add	ip, pc, #0, 12
   104f0:	e28cca10 	add	ip, ip, #16, 20	; 0x10000
   104f4:	e5bcfb34 	ldr	pc, [ip, #2868]!	; 0xb34

000104f8 <rand@plt>:
   104f8:	e28fc600 	add	ip, pc, #0, 12
   104fc:	e28cca10 	add	ip, ip, #16, 20	; 0x10000
   10500:	e5bcfb2c 	ldr	pc, [ip, #2860]!	; 0xb2c

00010504 <abort@plt>:
   10504:	e28fc600 	add	ip, pc, #0, 12
   10508:	e28cca10 	add	ip, ip, #16, 20	; 0x10000
   1050c:	e5bcfb24 	ldr	pc, [ip, #2852]!	; 0xb24

Disassembly of section .text:

00010510 <_start>:
   10510:	e3a0b000 	mov	fp, #0
   10514:	e3a0e000 	mov	lr, #0
   10518:	e49d1004 	pop	{r1}		; (ldr r1, [sp], #4)
   1051c:	e1a0200d 	mov	r2, sp
   10520:	e52d2004 	push	{r2}		; (str r2, [sp, #-4]!)
   10524:	e52d0004 	push	{r0}		; (str r0, [sp, #-4]!)
   10528:	e59fc010 	ldr	ip, [pc, #16]	; 10540 <_start+0x30>
   1052c:	e52dc004 	push	{ip}		; (str ip, [sp, #-4]!)
   10530:	e59f000c 	ldr	r0, [pc, #12]	; 10544 <_start+0x34>
   10534:	e59f300c 	ldr	r3, [pc, #12]	; 10548 <_start+0x38>
   10538:	ebffffe2 	bl	104c8 <__libc_start_main@plt>
   1053c:	ebfffff0 	bl	10504 <abort@plt>
   10540:	00010c48 	.word	0x00010c48
   10544:	000106a4 	.word	0x000106a4
   10548:	00010be8 	.word	0x00010be8

0001054c <call_weak_fn>:
   1054c:	e59f3014 	ldr	r3, [pc, #20]	; 10568 <call_weak_fn+0x1c>
   10550:	e59f2014 	ldr	r2, [pc, #20]	; 1056c <call_weak_fn+0x20>
   10554:	e08f3003 	add	r3, pc, r3
   10558:	e7932002 	ldr	r2, [r3, r2]
   1055c:	e3520000 	cmp	r2, #0
   10560:	012fff1e 	bxeq	lr
   10564:	eaffffda 	b	104d4 <__gmon_start__@plt>
   10568:	00010aa4 	.word	0x00010aa4
   1056c:	00000034 	.word	0x00000034

00010570 <deregister_tm_clones>:
   10570:	e59f301c 	ldr	r3, [pc, #28]	; 10594 <deregister_tm_clones+0x24>
   10574:	e59f001c 	ldr	r0, [pc, #28]	; 10598 <deregister_tm_clones+0x28>
   10578:	e0433000 	sub	r3, r3, r0
   1057c:	e3530006 	cmp	r3, #6
   10580:	912fff1e 	bxls	lr
   10584:	e59f3010 	ldr	r3, [pc, #16]	; 1059c <deregister_tm_clones+0x2c>
   10588:	e3530000 	cmp	r3, #0
   1058c:	012fff1e 	bxeq	lr
   10590:	e12fff13 	bx	r3
   10594:	00021047 	.word	0x00021047
   10598:	00021044 	.word	0x00021044
   1059c:	00000000 	.word	0x00000000

000105a0 <register_tm_clones>:
   105a0:	e59f1024 	ldr	r1, [pc, #36]	; 105cc <register_tm_clones+0x2c>
   105a4:	e59f0024 	ldr	r0, [pc, #36]	; 105d0 <register_tm_clones+0x30>
   105a8:	e0411000 	sub	r1, r1, r0
   105ac:	e1a01141 	asr	r1, r1, #2
   105b0:	e0811fa1 	add	r1, r1, r1, lsr #31
   105b4:	e1b010c1 	asrs	r1, r1, #1
   105b8:	012fff1e 	bxeq	lr
   105bc:	e59f3010 	ldr	r3, [pc, #16]	; 105d4 <register_tm_clones+0x34>
   105c0:	e3530000 	cmp	r3, #0
   105c4:	012fff1e 	bxeq	lr
   105c8:	e12fff13 	bx	r3
   105cc:	00021044 	.word	0x00021044
   105d0:	00021044 	.word	0x00021044
   105d4:	00000000 	.word	0x00000000

000105d8 <__do_global_dtors_aux>:
   105d8:	e92d4010 	push	{r4, lr}
   105dc:	e59f4018 	ldr	r4, [pc, #24]	; 105fc <__do_global_dtors_aux+0x24>
   105e0:	e5d43000 	ldrb	r3, [r4]
   105e4:	e3530000 	cmp	r3, #0
   105e8:	18bd8010 	popne	{r4, pc}
   105ec:	ebffffdf 	bl	10570 <deregister_tm_clones>
   105f0:	e3a03001 	mov	r3, #1
   105f4:	e5c43000 	strb	r3, [r4]
   105f8:	e8bd8010 	pop	{r4, pc}
   105fc:	00021044 	.word	0x00021044

00010600 <frame_dummy>:
   10600:	e59f0028 	ldr	r0, [pc, #40]	; 10630 <frame_dummy+0x30>
   10604:	e5903000 	ldr	r3, [r0]
   10608:	e3530000 	cmp	r3, #0
   1060c:	1a000000 	bne	10614 <frame_dummy+0x14>
   10610:	eaffffe2 	b	105a0 <register_tm_clones>
   10614:	e59f3018 	ldr	r3, [pc, #24]	; 10634 <frame_dummy+0x34>
   10618:	e3530000 	cmp	r3, #0
   1061c:	0afffffb 	beq	10610 <frame_dummy+0x10>
   10620:	e92d4010 	push	{r4, lr}
   10624:	e12fff33 	blx	r3
   10628:	e8bd4010 	pop	{r4, lr}
   1062c:	eaffffdb 	b	105a0 <register_tm_clones>
   10630:	00020f0c 	.word	0x00020f0c
   10634:	00000000 	.word	0x00000000

00010638 <mat_mult_arm>:
   10638:	e92d41f0 	push	{r4, r5, r6, r7, r8, lr}
   1063c:	e3a08efa 	mov	r8, #4000	; 0xfa0
   10640:	e3a05000 	mov	r5, #0

00010644 <i_loop>:
   10644:	e3a06000 	mov	r6, #0

00010648 <j_loop>:
   10648:	e3a07000 	mov	r7, #0

0001064c <k_loop>:
   1064c:	e3a03ffa 	mov	r3, #1000	; 0x3e8
   10650:	e7909005 	ldr	r9, [r0, r5]
   10654:	e799a007 	ldr	sl, [r9, r7]
   10658:	e7919007 	ldr	r9, [r1, r7]
   1065c:	e7994006 	ldr	r4, [r9, r6]
   10660:	e7929005 	ldr	r9, [r2, r5]
   10664:	e7993006 	ldr	r3, [r9, r6]
   10668:	e00a049a 	mul	sl, sl, r4
   1066c:	e083300a 	add	r3, r3, sl
   10670:	e7893006 	str	r3, [r9, r6]
   10674:	e2877004 	add	r7, r7, #4
   10678:	e1570008 	cmp	r7, r8
   1067c:	bafffff2 	blt	1064c <k_loop>
   10680:	e2866004 	add	r6, r6, #4
   10684:	e1560008 	cmp	r6, r8
   10688:	baffffee 	blt	10648 <j_loop>
   1068c:	e2855004 	add	r5, r5, #4
   10690:	e1550008 	cmp	r5, r8
   10694:	baffffea 	blt	10644 <i_loop>
   10698:	e8bd41f0 	pop	{r4, r5, r6, r7, r8, lr}
   1069c:	e12fff1e 	bx	lr

000106a0 <addr_size_bytes>:
   106a0:	00021040 	.word	0x00021040

000106a4 <main>:
   106a4:	e92d4800 	push	{fp, lr}
   106a8:	e28db004 	add	fp, sp, #4
   106ac:	e24dd010 	sub	sp, sp, #16
   106b0:	eb000016 	bl	10710 <allocate_matrix>
   106b4:	e50b0008 	str	r0, [fp, #-8]
   106b8:	eb000014 	bl	10710 <allocate_matrix>
   106bc:	e50b000c 	str	r0, [fp, #-12]
   106c0:	eb000012 	bl	10710 <allocate_matrix>
   106c4:	e50b0010 	str	r0, [fp, #-16]
   106c8:	e51b2010 	ldr	r2, [fp, #-16]
   106cc:	e51b100c 	ldr	r1, [fp, #-12]
   106d0:	e51b0008 	ldr	r0, [fp, #-8]
   106d4:	eb000096 	bl	10934 <init_matrices>
   106d8:	e51b2010 	ldr	r2, [fp, #-16]
   106dc:	e51b100c 	ldr	r1, [fp, #-12]
   106e0:	e51b0008 	ldr	r0, [fp, #-8]
   106e4:	ebffffd3 	bl	10638 <mat_mult_arm>
   106e8:	e51b0008 	ldr	r0, [fp, #-8]
   106ec:	eb000023 	bl	10780 <free_matrix>
   106f0:	e51b000c 	ldr	r0, [fp, #-12]
   106f4:	eb000021 	bl	10780 <free_matrix>
   106f8:	e51b0010 	ldr	r0, [fp, #-16]
   106fc:	eb00001f 	bl	10780 <free_matrix>
   10700:	e3a03000 	mov	r3, #0
   10704:	e1a00003 	mov	r0, r3
   10708:	e24bd004 	sub	sp, fp, #4
   1070c:	e8bd8800 	pop	{fp, pc}

00010710 <allocate_matrix>:
   10710:	e92d4810 	push	{r4, fp, lr}
   10714:	e28db008 	add	fp, sp, #8
   10718:	e24dd00c 	sub	sp, sp, #12
   1071c:	e3a00efa 	mov	r0, #4000	; 0xfa0
   10720:	ebffff65 	bl	104bc <malloc@plt>
   10724:	e1a03000 	mov	r3, r0
   10728:	e50b3014 	str	r3, [fp, #-20]	; 0xffffffec
   1072c:	e3a03000 	mov	r3, #0
   10730:	e50b3010 	str	r3, [fp, #-16]
   10734:	ea00000a 	b	10764 <allocate_matrix+0x54>
   10738:	e51b3010 	ldr	r3, [fp, #-16]
   1073c:	e1a03103 	lsl	r3, r3, #2
   10740:	e51b2014 	ldr	r2, [fp, #-20]	; 0xffffffec
   10744:	e0824003 	add	r4, r2, r3
   10748:	e3a00efa 	mov	r0, #4000	; 0xfa0
   1074c:	ebffff5a 	bl	104bc <malloc@plt>
   10750:	e1a03000 	mov	r3, r0
   10754:	e5843000 	str	r3, [r4]
   10758:	e51b3010 	ldr	r3, [fp, #-16]
   1075c:	e2833001 	add	r3, r3, #1
   10760:	e50b3010 	str	r3, [fp, #-16]
   10764:	e51b3010 	ldr	r3, [fp, #-16]
   10768:	e3530ffa 	cmp	r3, #1000	; 0x3e8
   1076c:	bafffff1 	blt	10738 <allocate_matrix+0x28>
   10770:	e51b3014 	ldr	r3, [fp, #-20]	; 0xffffffec
   10774:	e1a00003 	mov	r0, r3
   10778:	e24bd008 	sub	sp, fp, #8
   1077c:	e8bd8810 	pop	{r4, fp, pc}

00010780 <free_matrix>:
   10780:	e92d4800 	push	{fp, lr}
   10784:	e28db004 	add	fp, sp, #4
   10788:	e24dd010 	sub	sp, sp, #16
   1078c:	e50b0010 	str	r0, [fp, #-16]
   10790:	e3a03000 	mov	r3, #0
   10794:	e50b3008 	str	r3, [fp, #-8]
   10798:	ea000009 	b	107c4 <free_matrix+0x44>
   1079c:	e51b3008 	ldr	r3, [fp, #-8]
   107a0:	e1a03103 	lsl	r3, r3, #2
   107a4:	e51b2010 	ldr	r2, [fp, #-16]
   107a8:	e0823003 	add	r3, r2, r3
   107ac:	e5933000 	ldr	r3, [r3]
   107b0:	e1a00003 	mov	r0, r3
   107b4:	ebffff3a 	bl	104a4 <free@plt>
   107b8:	e51b3008 	ldr	r3, [fp, #-8]
   107bc:	e2833001 	add	r3, r3, #1
   107c0:	e50b3008 	str	r3, [fp, #-8]
   107c4:	e51b3008 	ldr	r3, [fp, #-8]
   107c8:	e3530ffa 	cmp	r3, #1000	; 0x3e8
   107cc:	bafffff2 	blt	1079c <free_matrix+0x1c>
   107d0:	e51b0010 	ldr	r0, [fp, #-16]
   107d4:	ebffff32 	bl	104a4 <free@plt>
   107d8:	e1a00000 	nop			; (mov r0, r0)
   107dc:	e24bd004 	sub	sp, fp, #4
   107e0:	e8bd8800 	pop	{fp, pc}

000107e4 <alloc_array>:
   107e4:	e92d4810 	push	{r4, fp, lr}
   107e8:	e28db008 	add	fp, sp, #8
   107ec:	e24dd00c 	sub	sp, sp, #12
   107f0:	e3a00010 	mov	r0, #16
   107f4:	ebffff30 	bl	104bc <malloc@plt>
   107f8:	e1a03000 	mov	r3, r0
   107fc:	e50b3014 	str	r3, [fp, #-20]	; 0xffffffec
   10800:	e51b3014 	ldr	r3, [fp, #-20]	; 0xffffffec
   10804:	e3530000 	cmp	r3, #0
   10808:	1a000003 	bne	1081c <alloc_array+0x38>
   1080c:	e59f0088 	ldr	r0, [pc, #136]	; 1089c <alloc_array+0xb8>
   10810:	ebffff26 	bl	104b0 <puts@plt>
   10814:	e3a00001 	mov	r0, #1
   10818:	ebffff30 	bl	104e0 <exit@plt>
   1081c:	e3a03000 	mov	r3, #0
   10820:	e50b3010 	str	r3, [fp, #-16]
   10824:	ea000015 	b	10880 <alloc_array+0x9c>
   10828:	e51b3010 	ldr	r3, [fp, #-16]
   1082c:	e1a03103 	lsl	r3, r3, #2
   10830:	e51b2014 	ldr	r2, [fp, #-20]	; 0xffffffec
   10834:	e0824003 	add	r4, r2, r3
   10838:	e3a00701 	mov	r0, #262144	; 0x40000
   1083c:	ebffff1e 	bl	104bc <malloc@plt>
   10840:	e1a03000 	mov	r3, r0
   10844:	e5843000 	str	r3, [r4]
   10848:	e51b3010 	ldr	r3, [fp, #-16]
   1084c:	e1a03103 	lsl	r3, r3, #2
   10850:	e51b2014 	ldr	r2, [fp, #-20]	; 0xffffffec
   10854:	e0823003 	add	r3, r2, r3
   10858:	e5933000 	ldr	r3, [r3]
   1085c:	e3530000 	cmp	r3, #0
   10860:	1a000003 	bne	10874 <alloc_array+0x90>
   10864:	e59f0034 	ldr	r0, [pc, #52]	; 108a0 <alloc_array+0xbc>
   10868:	ebffff10 	bl	104b0 <puts@plt>
   1086c:	e3a00001 	mov	r0, #1
   10870:	ebffff1a 	bl	104e0 <exit@plt>
   10874:	e51b3010 	ldr	r3, [fp, #-16]
   10878:	e2833001 	add	r3, r3, #1
   1087c:	e50b3010 	str	r3, [fp, #-16]
   10880:	e51b3010 	ldr	r3, [fp, #-16]
   10884:	e3530003 	cmp	r3, #3
   10888:	daffffe6 	ble	10828 <alloc_array+0x44>
   1088c:	e51b3014 	ldr	r3, [fp, #-20]	; 0xffffffec
   10890:	e1a00003 	mov	r0, r3
   10894:	e24bd008 	sub	sp, fp, #8
   10898:	e8bd8810 	pop	{r4, fp, pc}
   1089c:	00010c58 	.word	0x00010c58
   108a0:	00010c78 	.word	0x00010c78

000108a4 <init_array>:
   108a4:	e52db004 	push	{fp}		; (str fp, [sp, #-4]!)
   108a8:	e28db000 	add	fp, sp, #0
   108ac:	e24dd014 	sub	sp, sp, #20
   108b0:	e50b0010 	str	r0, [fp, #-16]
   108b4:	e3a03000 	mov	r3, #0
   108b8:	e50b3008 	str	r3, [fp, #-8]
   108bc:	ea000015 	b	10918 <init_array+0x74>
   108c0:	e3a03000 	mov	r3, #0
   108c4:	e50b300c 	str	r3, [fp, #-12]
   108c8:	ea00000c 	b	10900 <init_array+0x5c>
   108cc:	e51b3008 	ldr	r3, [fp, #-8]
   108d0:	e1a03103 	lsl	r3, r3, #2
   108d4:	e51b2010 	ldr	r2, [fp, #-16]
   108d8:	e0823003 	add	r3, r2, r3
   108dc:	e5932000 	ldr	r2, [r3]
   108e0:	e51b300c 	ldr	r3, [fp, #-12]
   108e4:	e1a03103 	lsl	r3, r3, #2
   108e8:	e0823003 	add	r3, r2, r3
   108ec:	e51b200c 	ldr	r2, [fp, #-12]
   108f0:	e5832000 	str	r2, [r3]
   108f4:	e51b300c 	ldr	r3, [fp, #-12]
   108f8:	e2833001 	add	r3, r3, #1
   108fc:	e50b300c 	str	r3, [fp, #-12]
   10900:	e51b300c 	ldr	r3, [fp, #-12]
   10904:	e3530801 	cmp	r3, #65536	; 0x10000
   10908:	baffffef 	blt	108cc <init_array+0x28>
   1090c:	e51b3008 	ldr	r3, [fp, #-8]
   10910:	e2833001 	add	r3, r3, #1
   10914:	e50b3008 	str	r3, [fp, #-8]
   10918:	e51b3008 	ldr	r3, [fp, #-8]
   1091c:	e3530003 	cmp	r3, #3
   10920:	daffffe6 	ble	108c0 <init_array+0x1c>
   10924:	e1a00000 	nop			; (mov r0, r0)
   10928:	e28bd000 	add	sp, fp, #0
   1092c:	e49db004 	pop	{fp}		; (ldr fp, [sp], #4)
   10930:	e12fff1e 	bx	lr

00010934 <init_matrices>:
   10934:	e92d4810 	push	{r4, fp, lr}
   10938:	e28db008 	add	fp, sp, #8
   1093c:	e24dd01c 	sub	sp, sp, #28
   10940:	e50b0018 	str	r0, [fp, #-24]	; 0xffffffe8
   10944:	e50b101c 	str	r1, [fp, #-28]	; 0xffffffe4
   10948:	e50b2020 	str	r2, [fp, #-32]	; 0xffffffe0
   1094c:	e59f00ec 	ldr	r0, [pc, #236]	; 10a40 <init_matrices+0x10c>
   10950:	ebfffee5 	bl	104ec <srand@plt>
   10954:	e3a03000 	mov	r3, #0
   10958:	e50b3010 	str	r3, [fp, #-16]
   1095c:	ea000031 	b	10a28 <init_matrices+0xf4>
   10960:	e3a03000 	mov	r3, #0
   10964:	e50b3014 	str	r3, [fp, #-20]	; 0xffffffec
   10968:	ea000028 	b	10a10 <init_matrices+0xdc>
   1096c:	e51b3018 	ldr	r3, [fp, #-24]	; 0xffffffe8
   10970:	e3530000 	cmp	r3, #0
   10974:	0a000018 	beq	109dc <init_matrices+0xa8>
   10978:	e51b301c 	ldr	r3, [fp, #-28]	; 0xffffffe4
   1097c:	e3530000 	cmp	r3, #0
   10980:	0a000015 	beq	109dc <init_matrices+0xa8>
   10984:	e51b3010 	ldr	r3, [fp, #-16]
   10988:	e1a03103 	lsl	r3, r3, #2
   1098c:	e51b2018 	ldr	r2, [fp, #-24]	; 0xffffffe8
   10990:	e0823003 	add	r3, r2, r3
   10994:	e5932000 	ldr	r2, [r3]
   10998:	e51b3014 	ldr	r3, [fp, #-20]	; 0xffffffec
   1099c:	e1a03103 	lsl	r3, r3, #2
   109a0:	e0824003 	add	r4, r2, r3
   109a4:	ebfffed3 	bl	104f8 <rand@plt>
   109a8:	e1a03000 	mov	r3, r0
   109ac:	e5843000 	str	r3, [r4]
   109b0:	e51b3010 	ldr	r3, [fp, #-16]
   109b4:	e1a03103 	lsl	r3, r3, #2
   109b8:	e51b201c 	ldr	r2, [fp, #-28]	; 0xffffffe4
   109bc:	e0823003 	add	r3, r2, r3
   109c0:	e5932000 	ldr	r2, [r3]
   109c4:	e51b3014 	ldr	r3, [fp, #-20]	; 0xffffffec
   109c8:	e1a03103 	lsl	r3, r3, #2
   109cc:	e0824003 	add	r4, r2, r3
   109d0:	ebfffec8 	bl	104f8 <rand@plt>
   109d4:	e1a03000 	mov	r3, r0
   109d8:	e5843000 	str	r3, [r4]
   109dc:	e51b3010 	ldr	r3, [fp, #-16]
   109e0:	e1a03103 	lsl	r3, r3, #2
   109e4:	e51b2020 	ldr	r2, [fp, #-32]	; 0xffffffe0
   109e8:	e0823003 	add	r3, r2, r3
   109ec:	e5932000 	ldr	r2, [r3]
   109f0:	e51b3014 	ldr	r3, [fp, #-20]	; 0xffffffec
   109f4:	e1a03103 	lsl	r3, r3, #2
   109f8:	e0823003 	add	r3, r2, r3
   109fc:	e3a02000 	mov	r2, #0
   10a00:	e5832000 	str	r2, [r3]
   10a04:	e51b3014 	ldr	r3, [fp, #-20]	; 0xffffffec
   10a08:	e2833001 	add	r3, r3, #1
   10a0c:	e50b3014 	str	r3, [fp, #-20]	; 0xffffffec
   10a10:	e51b3014 	ldr	r3, [fp, #-20]	; 0xffffffec
   10a14:	e3530ffa 	cmp	r3, #1000	; 0x3e8
   10a18:	baffffd3 	blt	1096c <init_matrices+0x38>
   10a1c:	e51b3010 	ldr	r3, [fp, #-16]
   10a20:	e2833001 	add	r3, r3, #1
   10a24:	e50b3010 	str	r3, [fp, #-16]
   10a28:	e51b3010 	ldr	r3, [fp, #-16]
   10a2c:	e3530ffa 	cmp	r3, #1000	; 0x3e8
   10a30:	baffffca 	blt	10960 <init_matrices+0x2c>
   10a34:	e1a00000 	nop			; (mov r0, r0)
   10a38:	e24bd008 	sub	sp, fp, #8
   10a3c:	e8bd8810 	pop	{r4, fp, pc}
   10a40:	00001092 	.word	0x00001092

00010a44 <check_result>:
   10a44:	e92d4800 	push	{fp, lr}
   10a48:	e28db004 	add	fp, sp, #4
   10a4c:	e24dd030 	sub	sp, sp, #48	; 0x30
   10a50:	e50b0020 	str	r0, [fp, #-32]	; 0xffffffe0
   10a54:	e50b1024 	str	r1, [fp, #-36]	; 0xffffffdc
   10a58:	e50b2028 	str	r2, [fp, #-40]	; 0xffffffd8
   10a5c:	e3a03000 	mov	r3, #0
   10a60:	e50b3014 	str	r3, [fp, #-20]	; 0xffffffec
   10a64:	e3a03000 	mov	r3, #0
   10a68:	e50b3008 	str	r3, [fp, #-8]
   10a6c:	ea00004e 	b	10bac <check_result+0x168>
   10a70:	e3a03000 	mov	r3, #0
   10a74:	e50b300c 	str	r3, [fp, #-12]
   10a78:	ea000042 	b	10b88 <check_result+0x144>
   10a7c:	e3a03000 	mov	r3, #0
   10a80:	e50b3018 	str	r3, [fp, #-24]	; 0xffffffe8
   10a84:	e3a03000 	mov	r3, #0
   10a88:	e50b3010 	str	r3, [fp, #-16]
   10a8c:	ea000018 	b	10af4 <check_result+0xb0>
   10a90:	e51b3008 	ldr	r3, [fp, #-8]
   10a94:	e1a03103 	lsl	r3, r3, #2
   10a98:	e51b2020 	ldr	r2, [fp, #-32]	; 0xffffffe0
   10a9c:	e0823003 	add	r3, r2, r3
   10aa0:	e5932000 	ldr	r2, [r3]
   10aa4:	e51b3010 	ldr	r3, [fp, #-16]
   10aa8:	e1a03103 	lsl	r3, r3, #2
   10aac:	e0823003 	add	r3, r2, r3
   10ab0:	e5933000 	ldr	r3, [r3]
   10ab4:	e51b2010 	ldr	r2, [fp, #-16]
   10ab8:	e1a02102 	lsl	r2, r2, #2
   10abc:	e51b1024 	ldr	r1, [fp, #-36]	; 0xffffffdc
   10ac0:	e0812002 	add	r2, r1, r2
   10ac4:	e5921000 	ldr	r1, [r2]
   10ac8:	e51b200c 	ldr	r2, [fp, #-12]
   10acc:	e1a02102 	lsl	r2, r2, #2
   10ad0:	e0812002 	add	r2, r1, r2
   10ad4:	e5922000 	ldr	r2, [r2]
   10ad8:	e0030392 	mul	r3, r2, r3
   10adc:	e51b2018 	ldr	r2, [fp, #-24]	; 0xffffffe8
   10ae0:	e0823003 	add	r3, r2, r3
   10ae4:	e50b3018 	str	r3, [fp, #-24]	; 0xffffffe8
   10ae8:	e51b3010 	ldr	r3, [fp, #-16]
   10aec:	e2833001 	add	r3, r3, #1
   10af0:	e50b3010 	str	r3, [fp, #-16]
   10af4:	e51b3010 	ldr	r3, [fp, #-16]
   10af8:	e3530ffa 	cmp	r3, #1000	; 0x3e8
   10afc:	baffffe3 	blt	10a90 <check_result+0x4c>
   10b00:	e51b3008 	ldr	r3, [fp, #-8]
   10b04:	e1a03103 	lsl	r3, r3, #2
   10b08:	e51b2028 	ldr	r2, [fp, #-40]	; 0xffffffd8
   10b0c:	e0823003 	add	r3, r2, r3
   10b10:	e5932000 	ldr	r2, [r3]
   10b14:	e51b300c 	ldr	r3, [fp, #-12]
   10b18:	e1a03103 	lsl	r3, r3, #2
   10b1c:	e0823003 	add	r3, r2, r3
   10b20:	e5932000 	ldr	r2, [r3]
   10b24:	e51b3018 	ldr	r3, [fp, #-24]	; 0xffffffe8
   10b28:	e1520003 	cmp	r2, r3
   10b2c:	0a000012 	beq	10b7c <check_result+0x138>
   10b30:	e51b3008 	ldr	r3, [fp, #-8]
   10b34:	e1a03103 	lsl	r3, r3, #2
   10b38:	e51b2028 	ldr	r2, [fp, #-40]	; 0xffffffd8
   10b3c:	e0823003 	add	r3, r2, r3
   10b40:	e5932000 	ldr	r2, [r3]
   10b44:	e51b300c 	ldr	r3, [fp, #-12]
   10b48:	e1a03103 	lsl	r3, r3, #2
   10b4c:	e0823003 	add	r3, r2, r3
   10b50:	e5932000 	ldr	r2, [r3]
   10b54:	e51b3018 	ldr	r3, [fp, #-24]	; 0xffffffe8
   10b58:	e58d3000 	str	r3, [sp]
   10b5c:	e1a03002 	mov	r3, r2
   10b60:	e51b200c 	ldr	r2, [fp, #-12]
   10b64:	e51b1008 	ldr	r1, [fp, #-8]
   10b68:	e59f0070 	ldr	r0, [pc, #112]	; 10be0 <check_result+0x19c>
   10b6c:	ebfffe49 	bl	10498 <printf@plt>
   10b70:	e3a03001 	mov	r3, #1
   10b74:	e50b3014 	str	r3, [fp, #-20]	; 0xffffffec
   10b78:	ea000005 	b	10b94 <check_result+0x150>
   10b7c:	e51b300c 	ldr	r3, [fp, #-12]
   10b80:	e2833001 	add	r3, r3, #1
   10b84:	e50b300c 	str	r3, [fp, #-12]
   10b88:	e51b300c 	ldr	r3, [fp, #-12]
   10b8c:	e3530ffa 	cmp	r3, #1000	; 0x3e8
   10b90:	baffffb9 	blt	10a7c <check_result+0x38>
   10b94:	e51b3014 	ldr	r3, [fp, #-20]	; 0xffffffec
   10b98:	e3530001 	cmp	r3, #1
   10b9c:	0a000006 	beq	10bbc <check_result+0x178>
   10ba0:	e51b3008 	ldr	r3, [fp, #-8]
   10ba4:	e2833001 	add	r3, r3, #1
   10ba8:	e50b3008 	str	r3, [fp, #-8]
   10bac:	e51b3008 	ldr	r3, [fp, #-8]
   10bb0:	e3530ffa 	cmp	r3, #1000	; 0x3e8
   10bb4:	baffffad 	blt	10a70 <check_result+0x2c>
   10bb8:	ea000000 	b	10bc0 <check_result+0x17c>
   10bbc:	e1a00000 	nop			; (mov r0, r0)
   10bc0:	e51b3014 	ldr	r3, [fp, #-20]	; 0xffffffec
   10bc4:	e3530000 	cmp	r3, #0
   10bc8:	1a000001 	bne	10bd4 <check_result+0x190>
   10bcc:	e59f0010 	ldr	r0, [pc, #16]	; 10be4 <check_result+0x1a0>
   10bd0:	ebfffe36 	bl	104b0 <puts@plt>
   10bd4:	e1a00000 	nop			; (mov r0, r0)
   10bd8:	e24bd004 	sub	sp, fp, #4
   10bdc:	e8bd8800 	pop	{fp, pc}
   10be0:	00010c98 	.word	0x00010c98
   10be4:	00010cb4 	.word	0x00010cb4

00010be8 <__libc_csu_init>:
   10be8:	e92d47f0 	push	{r4, r5, r6, r7, r8, r9, sl, lr}
   10bec:	e1a07000 	mov	r7, r0
   10bf0:	e59f6048 	ldr	r6, [pc, #72]	; 10c40 <__libc_csu_init+0x58>
   10bf4:	e59f5048 	ldr	r5, [pc, #72]	; 10c44 <__libc_csu_init+0x5c>
   10bf8:	e08f6006 	add	r6, pc, r6
   10bfc:	e08f5005 	add	r5, pc, r5
   10c00:	e0466005 	sub	r6, r6, r5
   10c04:	e1a08001 	mov	r8, r1
   10c08:	e1a09002 	mov	r9, r2
   10c0c:	ebfffe19 	bl	10478 <_init>
   10c10:	e1b06146 	asrs	r6, r6, #2
   10c14:	08bd87f0 	popeq	{r4, r5, r6, r7, r8, r9, sl, pc}
   10c18:	e3a04000 	mov	r4, #0
   10c1c:	e2844001 	add	r4, r4, #1
   10c20:	e4953004 	ldr	r3, [r5], #4
   10c24:	e1a02009 	mov	r2, r9
   10c28:	e1a01008 	mov	r1, r8
   10c2c:	e1a00007 	mov	r0, r7
   10c30:	e12fff33 	blx	r3
   10c34:	e1560004 	cmp	r6, r4
   10c38:	1afffff7 	bne	10c1c <__libc_csu_init+0x34>
   10c3c:	e8bd87f0 	pop	{r4, r5, r6, r7, r8, r9, sl, pc}
   10c40:	00010308 	.word	0x00010308
   10c44:	00010300 	.word	0x00010300

00010c48 <__libc_csu_fini>:
   10c48:	e12fff1e 	bx	lr

Disassembly of section .fini:

00010c4c <_fini>:
   10c4c:	e92d4008 	push	{r3, lr}
   10c50:	e8bd8008 	pop	{r3, pc}
